	.file	"benchmark.c"
	.text
	.globl	fibonacci
	.type	fibonacci, @function
fibonacci:
.LFB0:
	.cfi_startproc
	endbr64
	pushq	%rbp
	.cfi_def_cfa_offset 16
	.cfi_offset 6, -16
	movq	%rsp, %rbp
	.cfi_def_cfa_register 6
	pushq	%rbx
	subq	$24, %rsp
	.cfi_offset 3, -24
	movl	%edi, -20(%rbp)
	cmpl	$1, -20(%rbp)
	jg	.L2
	movl	-20(%rbp), %eax
	cltq
	jmp	.L3
.L2:
	movl	-20(%rbp), %eax
	subl	$1, %eax
	movl	%eax, %edi
	call	fibonacci
	movq	%rax, %rbx
	movl	-20(%rbp), %eax
	subl	$2, %eax
	movl	%eax, %edi
	call	fibonacci
	addq	%rbx, %rax
.L3:
	movq	-8(%rbp), %rbx
	leave
	.cfi_def_cfa 7, 8
	ret
	.cfi_endproc
.LFE0:
	.size	fibonacci, .-fibonacci
	.section	.rodata
.LC0:
	.string	"%d"
	.align 8
.LC2:
	.string	"Programa executado em %f segundos\n"
	.align 8
.LC3:
	.string	"Resultado de Fibonacci(%d): %llu\n"
	.text
	.globl	main
	.type	main, @function
main:
.LFB1:
	.cfi_startproc
	endbr64
	pushq	%rbp
	.cfi_def_cfa_offset 16
	.cfi_offset 6, -16
	movq	%rsp, %rbp
	.cfi_def_cfa_register 6
	subq	$48, %rsp
	movq	%fs:40, %rax
	movq	%rax, -8(%rbp)
	xorl	%eax, %eax
	leaq	-36(%rbp), %rax
	movq	%rax, %rsi
	leaq	.LC0(%rip), %rax
	movq	%rax, %rdi
	movl	$0, %eax
	call	__isoc99_scanf@PLT
	call	clock@PLT
	movq	%rax, -32(%rbp)
	movl	-36(%rbp), %eax
	movl	%eax, %edi
	call	fibonacci
	movq	%rax, -24(%rbp)
	call	clock@PLT
	subq	-32(%rbp), %rax
	pxor	%xmm0, %xmm0
	cvtsi2sdq	%rax, %xmm0
	movsd	.LC1(%rip), %xmm1
	divsd	%xmm1, %xmm0
	movsd	%xmm0, -16(%rbp)
	movq	-16(%rbp), %rax
	movq	%rax, %xmm0
	leaq	.LC2(%rip), %rax
	movq	%rax, %rdi
	movl	$1, %eax
	call	printf@PLT
	movl	-36(%rbp), %eax
	movq	-24(%rbp), %rdx
	movl	%eax, %esi
	leaq	.LC3(%rip), %rax
	movq	%rax, %rdi
	movl	$0, %eax
	call	printf@PLT
	movl	$0, %eax
	movq	-8(%rbp), %rdx
	subq	%fs:40, %rdx
	je	.L6
	call	__stack_chk_fail@PLT
.L6:
	leave
	.cfi_def_cfa 7, 8
	ret
	.cfi_endproc
.LFE1:
	.size	main, .-main
	.section	.rodata
	.align 8
.LC1:
	.long	0
	.long	1093567616
	.ident	"GCC: (Ubuntu 13.3.0-6ubuntu2~24.04.1) 13.3.0"
	.section	.note.GNU-stack,"",@progbits
	.section	.note.gnu.property,"a"
	.align 8
	.long	1f - 0f
	.long	4f - 1f
	.long	5
0:
	.string	"GNU"
1:
	.align 8
	.long	0xc0000002
	.long	3f - 2f
2:
	.long	0x3
3:
	.align 8
4:
